(dp0
VversionCode
p1
V40
p2
sVversionName
p3
V1.4.0
p4
sVpackingTime
p5
V2017/12/4 13:00
p6
sVsum
p7
L3L
sVpass
p8
L3L
sVfail
p9
L0L
sVtestDate
p10
V2018-03-22 17:17:09
p11
sVtestSumDate
p12
V193\u79d2
p13
s.